; Function Attrs: mustprogress nounwind uwtable
define noundef zeroext i1 @_ZN11OpenImageIO6v3_1_07Strutil8containsENS0_17basic_string_viewIcSt11char_traitsIcEEES5_(ptr noundef readonly captures(none) %0, ptr noundef readonly captures(none) %1) local_unnamed_addr #15 {
  %3 = alloca %"class.OpenImageIO::v3_1_0::basic_string_view", align 8
  %4 = alloca %"class.OpenImageIO::v3_1_0::basic_string_view", align 8
  %5 = load ptr, ptr %0, align 8, !tbaa !67
  store ptr %5, ptr %4, align 8, !tbaa !67
  %6 = getelementptr inbounds nuw i8, ptr %4, i64 8
  %7 = getelementptr inbounds nuw i8, ptr %0, i64 8
  %8 = load i64, ptr %7, align 8, !tbaa !64
  store i64 %8, ptr %6, align 8, !tbaa !64
  %9 = load ptr, ptr %1, align 8, !tbaa !67
  %10 = getelementptr inbounds nuw i8, ptr %1, i64 8
  %11 = load i64, ptr %10, align 8, !tbaa !64
  call void @llvm.lifetime.start.p0(i64 16, ptr nonnull %3)
  store ptr %9, ptr %3, align 8, !tbaa !67
  %12 = getelementptr inbounds nuw i8, ptr %3, i64 8
  store i64 %11, ptr %12, align 8, !tbaa !64
  %13 = call noundef i64 @_ZNK11OpenImageIO6v3_1_017basic_string_viewIcSt11char_traitsIcEE4findES4_m(ptr noundef nonnull align 8 dereferenceable(16) %4, ptr noundef nonnull %3, i64 noundef 0) #16
  call void @llvm.lifetime.end.p0(i64 16, ptr nonnull %3)
  %14 = icmp ne i64 %13, -1
  ret i1 %14
}